(lp0
(imeep.core
SuperUser
p1
(dp2
S'_membership'
p3
S'SUPER'
p4
sS'_blocked'
p5
I00
sS'_username'
p6
S'su'
p7
sS'_requestPromotion'
p8
I0
sS'_suggestions'
p9
I-1
sS'_interests'
p10
(lp11
S'ALGORITHMS'
p12
aS'MINECRAFT'
p13
aS'POKEMON'
p14
asS'_ownedDocuments'
p15
(lp16
sS'_password'
p17
S'root'
p18
sS'_id'
p19
I0
sS'_userDocumentRequests'
p20
(lp21
sba.